target datalayout = "e-m:e-p270:32:32-p271:32:32-p272:64:64-i64:64-i128:128-f80:128-n8:16:32:64-S128"
target triple = "x86_64-pc-linux-gnu"

%struct.afalg_ctx_st = type { i32, i32, i32, %struct.afalg_aio_st }
%struct.afalg_aio_st = type { i32, i32, i64, [1 x %struct.io_event], [1 x %struct.iocb] }
%struct.io_event = type { i64, i64, i64, i64 }
%struct.iocb = type { i64, i32, i32, i16, i16, i32, i64, i64, i64, i64, i32, i32 }
%struct.sockaddr_alg = type { i16, [14 x i8], i32, i32, [64 x i8] }
%union.__CONST_SOCKADDR_ARG = type { ptr }
%union.__SOCKADDR_ARG = type { ptr }

@.str.1 = private unnamed_addr constant [29 x i8] c"../openssl/engines/e_afalg.c\00", align 1
@stderr = external global ptr, align 8
@lib_code = internal global i32 0, align 4
@.str.5 = private unnamed_addr constant [33 x i8] c"../openssl/engines/e_afalg_err.c\00", align 1
@__func__.ERR_AFALG_error = private unnamed_addr constant [16 x i8] c"ERR_AFALG_error\00", align 1
@.str.21 = private unnamed_addr constant [9 x i8] c"cbc(aes)\00", align 1
@.str.22 = private unnamed_addr constant [9 x i8] c"skcipher\00", align 1
@.str.23 = private unnamed_addr constant [43 x i8] c"ALG_PERR: %s(%d): Failed to open socket : \00", align 1
@.str.24 = private unnamed_addr constant [43 x i8] c"ALG_PERR: %s(%d): Failed to bind socket : \00", align 1
@.str.25 = private unnamed_addr constant [42 x i8] c"ALG_PERR: %s(%d): Socket Accept Failed : \00", align 1
@.str.26 = private unnamed_addr constant [49 x i8] c"ALG_PERR: %s(%d): Failed to set socket option : \00", align 1

; Function Attrs: nounwind uwtable
define internal void @ERR_AFALG_error(i32 noundef %0, i32 noundef %1, ptr noundef %2, i32 noundef %3) #0 {
  %5 = alloca i32, align 4
  %6 = alloca i32, align 4
  %7 = alloca ptr, align 8
  %8 = alloca i32, align 4
  store i32 %0, ptr %5, align 4, !tbaa !20
  store i32 %1, ptr %6, align 4, !tbaa !20
  store ptr %2, ptr %7, align 8, !tbaa !10
  store i32 %3, ptr %8, align 4, !tbaa !20
  %9 = load i32, ptr @lib_code, align 4, !tbaa !20
  %10 = icmp eq i32 %9, 0
  br i1 %10, label %11, label %13

11:                                               ; preds = %4
  %12 = call i32 @ERR_get_next_error_library()
  store i32 %12, ptr @lib_code, align 4, !tbaa !20
  br label %13

13:                                               ; preds = %11, %4
  call void @ERR_new()
  call void @ERR_set_debug(ptr noundef @.str.5, i32 noundef 70, ptr noundef @__func__.ERR_AFALG_error)
  %14 = load i32, ptr @lib_code, align 4, !tbaa !20
  %15 = load i32, ptr %6, align 4, !tbaa !20
  call void (i32, i32, ptr, ...) @ERR_set_error(i32 noundef %14, i32 noundef %15, ptr noundef null)
  %16 = load ptr, ptr %7, align 8, !tbaa !10
  %17 = load i32, ptr %8, align 4, !tbaa !20
  call void @ERR_set_debug(ptr noundef %16, i32 noundef %17, ptr noundef null)
  ret void
}

; Function Attrs: inlinehint nounwind uwtable
define internal i32 @afalg_set_key(ptr noundef %0, ptr noundef %1, i32 noundef %2) #7 {
  %4 = alloca i32, align 4
  %5 = alloca ptr, align 8
  %6 = alloca ptr, align 8
  %7 = alloca i32, align 4
  %8 = alloca i32, align 4
  %9 = alloca i32, align 4
  store ptr %0, ptr %5, align 8, !tbaa !44
  store ptr %1, ptr %6, align 8, !tbaa !10
  store i32 %2, ptr %7, align 4, !tbaa !20
  call void @llvm.lifetime.start.p0(i64 4, ptr %8) #11
  %10 = load ptr, ptr %5, align 8, !tbaa !44
  %11 = getelementptr inbounds nuw %struct.afalg_ctx_st, ptr %10, i32 0, i32 2
  %12 = load i32, ptr %11, align 8, !tbaa !50
  %13 = load ptr, ptr %6, align 8, !tbaa !10
  %14 = load i32, ptr %7, align 4, !tbaa !20
  %15 = call i32 @setsockopt(i32 noundef %12, i32 noundef 279, i32 noundef 1, ptr noundef %13, i32 noundef %14) #11
  store i32 %15, ptr %8, align 4, !tbaa !20
  %16 = load i32, ptr %8, align 4, !tbaa !20
  %17 = icmp slt i32 %16, 0
  br i1 %17, label %18, label %24

18:                                               ; preds = %3
  br label %19

19:                                               ; preds = %18
  %20 = load ptr, ptr @stderr, align 8, !tbaa !24
  %21 = call i32 (ptr, ptr, ...) @fprintf(ptr noundef %20, ptr noundef @.str.26, ptr noundef @.str.1, i32 noundef 433) #11
  call void @perror(ptr noundef null)
  br label %22

22:                                               ; preds = %19
  br label %23

23:                                               ; preds = %22
  call void @ERR_AFALG_error(i32 noundef 0, i32 noundef 106, ptr noundef @.str.1, i32 noundef 434)
  store i32 0, ptr %4, align 4
  store i32 1, ptr %9, align 4
  br label %25

24:                                               ; preds = %3
  store i32 1, ptr %4, align 4
  store i32 1, ptr %9, align 4
  br label %25

25:                                               ; preds = %24, %23
  call void @llvm.lifetime.end.p0(i64 4, ptr %8) #11
  %26 = load i32, ptr %4, align 4
  ret i32 %26
}

; Function Attrs: nounwind uwtable
define internal i32 @afalg_create_sk(ptr noundef %0, ptr noundef %1, ptr noundef %2) #0 {
  %4 = alloca i32, align 4
  %5 = alloca ptr, align 8
  %6 = alloca ptr, align 8
  %7 = alloca ptr, align 8
  %8 = alloca %struct.sockaddr_alg, align 4
  %9 = alloca i32, align 4
  %10 = alloca %union.__CONST_SOCKADDR_ARG, align 8
  %11 = alloca %union.__SOCKADDR_ARG, align 8
  %12 = alloca i32, align 4
  store ptr %0, ptr %5, align 8, !tbaa !44
  store ptr %1, ptr %6, align 8, !tbaa !10
  store ptr %2, ptr %7, align 8, !tbaa !10
  call void @llvm.lifetime.start.p0(i64 88, ptr %8) #11
  call void @llvm.lifetime.start.p0(i64 4, ptr %9) #11
  store i32 -1, ptr %9, align 4, !tbaa !20
  %13 = load ptr, ptr %5, align 8, !tbaa !44
  %14 = getelementptr inbounds nuw %struct.afalg_ctx_st, ptr %13, i32 0, i32 1
  store i32 -1, ptr %14, align 4, !tbaa !49
  %15 = load ptr, ptr %5, align 8, !tbaa !44
  %16 = getelementptr inbounds nuw %struct.afalg_ctx_st, ptr %15, i32 0, i32 2
  store i32 -1, ptr %16, align 8, !tbaa !50
  call void @llvm.memset.p0.i64(ptr align 4 %8, i8 0, i64 88, i1 false)
  %17 = getelementptr inbounds nuw %struct.sockaddr_alg, ptr %8, i32 0, i32 0
  store i16 38, ptr %17, align 4, !tbaa !54
  %18 = getelementptr inbounds nuw %struct.sockaddr_alg, ptr %8, i32 0, i32 1
  %19 = getelementptr inbounds [14 x i8], ptr %18, i64 0, i64 0
  %20 = load ptr, ptr %6, align 8, !tbaa !10
  %21 = call i64 @OPENSSL_strlcpy(ptr noundef %19, ptr noundef %20, i64 noundef 14)
  %22 = getelementptr inbounds nuw %struct.sockaddr_alg, ptr %8, i32 0, i32 4
  %23 = getelementptr inbounds [64 x i8], ptr %22, i64 0, i64 0
  %24 = load ptr, ptr %7, align 8, !tbaa !10
  %25 = call i64 @OPENSSL_strlcpy(ptr noundef %23, ptr noundef %24, i64 noundef 64)
  %26 = call i32 @socket(i32 noundef 38, i32 noundef 5, i32 noundef 0) #11
  %27 = load ptr, ptr %5, align 8, !tbaa !44
  %28 = getelementptr inbounds nuw %struct.afalg_ctx_st, ptr %27, i32 0, i32 2
  store i32 %26, ptr %28, align 8, !tbaa !50
  %29 = load ptr, ptr %5, align 8, !tbaa !44
  %30 = getelementptr inbounds nuw %struct.afalg_ctx_st, ptr %29, i32 0, i32 2
  %31 = load i32, ptr %30, align 8, !tbaa !50
  %32 = icmp eq i32 %31, -1
  br i1 %32, label %33, label %39

33:                                               ; preds = %3
  br label %34

34:                                               ; preds = %33
  %35 = load ptr, ptr @stderr, align 8, !tbaa !24
  %36 = call i32 (ptr, ptr, ...) @fprintf(ptr noundef %35, ptr noundef @.str.23, ptr noundef @.str.1, i32 noundef 455) #11
  call void @perror(ptr noundef null)
  br label %37

37:                                               ; preds = %34
  br label %38

38:                                               ; preds = %37
  call void @ERR_AFALG_error(i32 noundef 0, i32 noundef 109, ptr noundef @.str.1, i32 noundef 456)
  br label %74

39:                                               ; preds = %3
  %40 = load ptr, ptr %5, align 8, !tbaa !44
  %41 = getelementptr inbounds nuw %struct.afalg_ctx_st, ptr %40, i32 0, i32 2
  %42 = load i32, ptr %41, align 8, !tbaa !50
  store ptr %8, ptr %10, align 8, !tbaa !56
  %43 = getelementptr inbounds nuw %union.__CONST_SOCKADDR_ARG, ptr %10, i32 0, i32 0
  %44 = load ptr, ptr %43, align 8
  %45 = call i32 @bind(i32 noundef %42, ptr %44, i32 noundef 88) #11
  store i32 %45, ptr %9, align 4, !tbaa !20
  %46 = load i32, ptr %9, align 4, !tbaa !20
  %47 = icmp slt i32 %46, 0
  br i1 %47, label %48, label %54

48:                                               ; preds = %39
  br label %49

49:                                               ; preds = %48
  %50 = load ptr, ptr @stderr, align 8, !tbaa !24
  %51 = call i32 (ptr, ptr, ...) @fprintf(ptr noundef %50, ptr noundef @.str.24, ptr noundef @.str.1, i32 noundef 462) #11
  call void @perror(ptr noundef null)
  br label %52

52:                                               ; preds = %49
  br label %53

53:                                               ; preds = %52
  call void @ERR_AFALG_error(i32 noundef 0, i32 noundef 103, ptr noundef @.str.1, i32 noundef 463)
  br label %74

54:                                               ; preds = %39
  %55 = load ptr, ptr %5, align 8, !tbaa !44
  %56 = getelementptr inbounds nuw %struct.afalg_ctx_st, ptr %55, i32 0, i32 2
  %57 = load i32, ptr %56, align 8, !tbaa !50
  store ptr null, ptr %11, align 8, !tbaa !56
  %58 = getelementptr inbounds nuw %union.__SOCKADDR_ARG, ptr %11, i32 0, i32 0
  %59 = load ptr, ptr %58, align 8
  %60 = call i32 @accept(i32 noundef %57, ptr %59, ptr noundef null)
  %61 = load ptr, ptr %5, align 8, !tbaa !44
  %62 = getelementptr inbounds nuw %struct.afalg_ctx_st, ptr %61, i32 0, i32 1
  store i32 %60, ptr %62, align 4, !tbaa !49
  %63 = load ptr, ptr %5, align 8, !tbaa !44
  %64 = getelementptr inbounds nuw %struct.afalg_ctx_st, ptr %63, i32 0, i32 1
  %65 = load i32, ptr %64, align 4, !tbaa !49
  %66 = icmp slt i32 %65, 0
  br i1 %66, label %67, label %73

67:                                               ; preds = %54
  br label %68

68:                                               ; preds = %67
  %69 = load ptr, ptr @stderr, align 8, !tbaa !24
  %70 = call i32 (ptr, ptr, ...) @fprintf(ptr noundef %69, ptr noundef @.str.25, ptr noundef @.str.1, i32 noundef 469) #11
  call void @perror(ptr noundef null)
  br label %71

71:                                               ; preds = %68
  br label %72

72:                                               ; preds = %71
  call void @ERR_AFALG_error(i32 noundef 0, i32 noundef 110, ptr noundef @.str.1, i32 noundef 470)
  br label %74

73:                                               ; preds = %54
  store i32 1, ptr %4, align 4
  store i32 1, ptr %12, align 4
  br label %99

74:                                               ; preds = %72, %53, %38
  %75 = load ptr, ptr %5, align 8, !tbaa !44
  %76 = getelementptr inbounds nuw %struct.afalg_ctx_st, ptr %75, i32 0, i32 2
  %77 = load i32, ptr %76, align 8, !tbaa !50
  %78 = icmp sge i32 %77, 0
  br i1 %78, label %79, label %84

79:                                               ; preds = %74
  %80 = load ptr, ptr %5, align 8, !tbaa !44
  %81 = getelementptr inbounds nuw %struct.afalg_ctx_st, ptr %80, i32 0, i32 2
  %82 = load i32, ptr %81, align 8, !tbaa !50
  %83 = call i32 @close(i32 noundef %82)
  br label %84

84:                                               ; preds = %79, %74
  %85 = load ptr, ptr %5, align 8, !tbaa !44
  %86 = getelementptr inbounds nuw %struct.afalg_ctx_st, ptr %85, i32 0, i32 1
  %87 = load i32, ptr %86, align 4, !tbaa !49
  %88 = icmp sge i32 %87, 0
  br i1 %88, label %89, label %94

89:                                               ; preds = %84
  %90 = load ptr, ptr %5, align 8, !tbaa !44
  %91 = getelementptr inbounds nuw %struct.afalg_ctx_st, ptr %90, i32 0, i32 1
  %92 = load i32, ptr %91, align 4, !tbaa !49
  %93 = call i32 @close(i32 noundef %92)
  br label %94

94:                                               ; preds = %89, %84
  %95 = load ptr, ptr %5, align 8, !tbaa !44
  %96 = getelementptr inbounds nuw %struct.afalg_ctx_st, ptr %95, i32 0, i32 1
  store i32 -1, ptr %96, align 4, !tbaa !49
  %97 = load ptr, ptr %5, align 8, !tbaa !44
  %98 = getelementptr inbounds nuw %struct.afalg_ctx_st, ptr %97, i32 0, i32 2
  store i32 -1, ptr %98, align 8, !tbaa !50
  store i32 0, ptr %4, align 4
  store i32 1, ptr %12, align 4
  br label %99

99:                                               ; preds = %94, %73
  call void @llvm.lifetime.end.p0(i64 4, ptr %9) #11
  call void @llvm.lifetime.end.p0(i64 88, ptr %8) #11
  %100 = load i32, ptr %4, align 4
  ret i32 %100
}

; Function Attrs: nounwind uwtable
define internal i32 @afalg_cipher_init(ptr noundef %0, ptr noundef %1, ptr noundef %2, i32 noundef %3) #0 {
  %5 = alloca i32, align 4
  %6 = alloca ptr, align 8
  %7 = alloca ptr, align 8
  %8 = alloca ptr, align 8
  %9 = alloca i32, align 4
  %10 = alloca i32, align 4
  %11 = alloca i32, align 4
  %12 = alloca i32, align 4
  %13 = alloca ptr, align 8
  %14 = alloca ptr, align 8
  %15 = alloca i32, align 4
  store ptr %0, ptr %6, align 8, !tbaa !42
  store ptr %1, ptr %7, align 8, !tbaa !10
  store ptr %2, ptr %8, align 8, !tbaa !10
  store i32 %3, ptr %9, align 4, !tbaa !20
  call void @llvm.lifetime.start.p0(i64 4, ptr %10) #11
  call void @llvm.lifetime.start.p0(i64 4, ptr %11) #11
  call void @llvm.lifetime.start.p0(i64 4, ptr %12) #11
  call void @llvm.lifetime.start.p0(i64 8, ptr %13) #11
  call void @llvm.lifetime.start.p0(i64 8, ptr %14) #11
  %16 = load ptr, ptr %6, align 8, !tbaa !42
  %17 = icmp eq ptr %16, null
  br i1 %17, label %21, label %18

18:                                               ; preds = %4
  %19 = load ptr, ptr %7, align 8, !tbaa !10
  %20 = icmp eq ptr %19, null
  br i1 %20, label %21, label %22

21:                                               ; preds = %18, %4
  store i32 0, ptr %5, align 4
  store i32 1, ptr %15, align 4
  br label %82

22:                                               ; preds = %18
  %23 = load ptr, ptr %6, align 8, !tbaa !42
  %24 = call ptr @EVP_CIPHER_CTX_get0_cipher(ptr noundef %23)
  %25 = icmp eq ptr %24, null
  br i1 %25, label %26, label %27

26:                                               ; preds = %22
  store i32 0, ptr %5, align 4
  store i32 1, ptr %15, align 4
  br label %82

27:                                               ; preds = %22
  %28 = load ptr, ptr %6, align 8, !tbaa !42
  %29 = call ptr @EVP_CIPHER_CTX_get_cipher_data(ptr noundef %28)
  store ptr %29, ptr %13, align 8, !tbaa !44
  %30 = load ptr, ptr %13, align 8, !tbaa !44
  %31 = icmp eq ptr %30, null
  br i1 %31, label %32, label %33

32:                                               ; preds = %27
  store i32 0, ptr %5, align 4
  store i32 1, ptr %15, align 4
  br label %82

33:                                               ; preds = %27
  %34 = load ptr, ptr %6, align 8, !tbaa !42
  %35 = call i32 @EVP_CIPHER_CTX_get_nid(ptr noundef %34)
  store i32 %35, ptr %10, align 4, !tbaa !20
  %36 = load i32, ptr %10, align 4, !tbaa !20
  switch i32 %36, label %38 [
    i32 419, label %37
    i32 423, label %37
    i32 427, label %37
  ]

37:                                               ; preds = %33, %33, %33
  store ptr @.str.21, ptr %14, align 8, !tbaa !10
  br label %39

38:                                               ; preds = %33
  store i32 0, ptr %5, align 4
  store i32 1, ptr %15, align 4
  br label %82

39:                                               ; preds = %37
  %40 = load ptr, ptr %6, align 8, !tbaa !42
  %41 = call i32 @EVP_CIPHER_CTX_get_iv_length(ptr noundef %40)
  %42 = icmp ne i32 16, %41
  br i1 %42, label %43, label %44

43:                                               ; preds = %39
  store i32 0, ptr %5, align 4
  store i32 1, ptr %15, align 4
  br label %82

44:                                               ; preds = %39
  %45 = load ptr, ptr %13, align 8, !tbaa !44
  %46 = load ptr, ptr %14, align 8, !tbaa !10
  %47 = call i32 @afalg_create_sk(ptr noundef %45, ptr noundef @.str.22, ptr noundef %46)
  store i32 %47, ptr %11, align 4, !tbaa !20
  %48 = load i32, ptr %11, align 4, !tbaa !20
  %49 = icmp slt i32 %48, 1
  br i1 %49, label %50, label %51

50:                                               ; preds = %44
  store i32 0, ptr %5, align 4
  store i32 1, ptr %15, align 4
  br label %82

51:                                               ; preds = %44
  %52 = load ptr, ptr %6, align 8, !tbaa !42
  %53 = call i32 @EVP_CIPHER_CTX_get_key_length(ptr noundef %52)
  store i32 %53, ptr %12, align 4, !tbaa !20
  %54 = icmp sle i32 %53, 0
  br i1 %54, label %55, label %56

55:                                               ; preds = %51
  br label %73

56:                                               ; preds = %51
  %57 = load ptr, ptr %13, align 8, !tbaa !44
  %58 = load ptr, ptr %7, align 8, !tbaa !10
  %59 = load i32, ptr %12, align 4, !tbaa !20
  %60 = call i32 @afalg_set_key(ptr noundef %57, ptr noundef %58, i32 noundef %59)
  store i32 %60, ptr %11, align 4, !tbaa !20
  %61 = load i32, ptr %11, align 4, !tbaa !20
  %62 = icmp slt i32 %61, 1
  br i1 %62, label %63, label %64

63:                                               ; preds = %56
  br label %73

64:                                               ; preds = %56
  %65 = load ptr, ptr %13, align 8, !tbaa !44
  %66 = getelementptr inbounds nuw %struct.afalg_ctx_st, ptr %65, i32 0, i32 3
  %67 = call i32 @afalg_init_aio(ptr noundef %66)
  %68 = icmp eq i32 %67, 0
  br i1 %68, label %69, label %70

69:                                               ; preds = %64
  br label %73

70:                                               ; preds = %64
  %71 = load ptr, ptr %13, align 8, !tbaa !44
  %72 = getelementptr inbounds nuw %struct.afalg_ctx_st, ptr %71, i32 0, i32 0
  store i32 25757297, ptr %72, align 8, !tbaa !46
  store i32 1, ptr %5, align 4
  store i32 1, ptr %15, align 4
  br label %82

73:                                               ; preds = %69, %63, %55
  %74 = load ptr, ptr %13, align 8, !tbaa !44
  %75 = getelementptr inbounds nuw %struct.afalg_ctx_st, ptr %74, i32 0, i32 1
  %76 = load i32, ptr %75, align 4, !tbaa !49
  %77 = call i32 @close(i32 noundef %76)
  %78 = load ptr, ptr %13, align 8, !tbaa !44
  %79 = getelementptr inbounds nuw %struct.afalg_ctx_st, ptr %78, i32 0, i32 2
  %80 = load i32, ptr %79, align 8, !tbaa !50
  %81 = call i32 @close(i32 noundef %80)
  store i32 0, ptr %5, align 4
  store i32 1, ptr %15, align 4
  br label %82

82:                                               ; preds = %73, %70, %50, %43, %38, %32, %26, %21
  call void @llvm.lifetime.end.p0(i64 8, ptr %14) #11
  call void @llvm.lifetime.end.p0(i64 8, ptr %13) #11
  call void @llvm.lifetime.end.p0(i64 4, ptr %12) #11
  call void @llvm.lifetime.end.p0(i64 4, ptr %11) #11
  call void @llvm.lifetime.end.p0(i64 4, ptr %10) #11
  %83 = load i32, ptr %5, align 4
  ret i32 %83
}