; Function Attrs: nounwind uwtable
define internal range(i32 0, 2) i32 @afalg_cipher_init(ptr noundef %0, ptr noundef %1, ptr readnone captures(none) %2, i32 %3) #1 {
  %5 = alloca %struct.sockaddr_alg, align 4
  %6 = icmp eq ptr %0, null
  %7 = icmp eq ptr %1, null
  %or.cond = or i1 %6, %7
  br i1 %or.cond, label %83, label %8

8:                                                ; preds = %4
  %9 = tail call ptr @EVP_CIPHER_CTX_get0_cipher(ptr noundef nonnull %0) #13
  %10 = icmp eq ptr %9, null
  br i1 %10, label %83, label %11

11:                                               ; preds = %8
  %12 = tail call ptr @EVP_CIPHER_CTX_get_cipher_data(ptr noundef nonnull %0) #13
  %13 = icmp eq ptr %12, null
  br i1 %13, label %83, label %14

14:                                               ; preds = %11
  %15 = tail call i32 @EVP_CIPHER_CTX_get_nid(ptr noundef nonnull %0) #13
  switch i32 %15, label %83 [
    i32 419, label %16
    i32 423, label %16
    i32 427, label %16
  ]

16:                                               ; preds = %14, %14, %14
  %17 = tail call i32 @EVP_CIPHER_CTX_get_iv_length(ptr noundef nonnull %0) #13
  %.not = icmp eq i32 %17, 16
  br i1 %.not, label %18, label %83

18:                                               ; preds = %16
  call void @llvm.lifetime.start.p0(i64 88, ptr nonnull %5) #13
  %19 = getelementptr inbounds nuw i8, ptr %12, i64 4
  store i32 -1, ptr %19, align 4, !tbaa !27
  %20 = getelementptr inbounds nuw i8, ptr %12, i64 8
  store i32 -1, ptr %20, align 8, !tbaa !31
  call void @llvm.memset.p0.i64(ptr noundef nonnull align 4 dereferenceable(88) %5, i8 0, i64 88, i1 false)
  store i16 38, ptr %5, align 4, !tbaa !32
  %21 = getelementptr inbounds nuw i8, ptr %5, i64 2
  %22 = call i64 @OPENSSL_strlcpy(ptr noundef nonnull %21, ptr noundef nonnull @.str.22, i64 noundef 14) #13
  %23 = getelementptr inbounds nuw i8, ptr %5, i64 24
  %24 = call i64 @OPENSSL_strlcpy(ptr noundef nonnull %23, ptr noundef nonnull @.str.21, i64 noundef 64) #13
  %25 = call i32 @socket(i32 noundef 38, i32 noundef 5, i32 noundef 0) #13
  store i32 %25, ptr %20, align 8, !tbaa !31
  %26 = icmp eq i32 %25, -1
  br i1 %26, label %27, label %32

27:                                               ; preds = %18
  %28 = load ptr, ptr @stderr, align 8, !tbaa !16
  %29 = call i32 (ptr, ptr, ...) @fprintf(ptr noundef %28, ptr noundef nonnull @.str.23, ptr noundef nonnull @.str.1, i32 noundef 455) #15
  call void @perror(ptr noundef null) #16
  %30 = load i32, ptr @lib_code, align 4, !tbaa !12
  %31 = icmp eq i32 %30, 0
  br i1 %31, label %ERR_AFALG_error.exit.sink.split.i, label %ERR_AFALG_error.exit.i

32:                                               ; preds = %18
  %33 = call i32 @bind(i32 noundef %25, ptr nonnull %5, i32 noundef 88) #13
  %34 = icmp slt i32 %33, 0
  br i1 %34, label %35, label %40

35:                                               ; preds = %32
  %36 = load ptr, ptr @stderr, align 8, !tbaa !16
  %37 = call i32 (ptr, ptr, ...) @fprintf(ptr noundef %36, ptr noundef nonnull @.str.24, ptr noundef nonnull @.str.1, i32 noundef 462) #15
  call void @perror(ptr noundef null) #16
  %38 = load i32, ptr @lib_code, align 4, !tbaa !12
  %39 = icmp eq i32 %38, 0
  br i1 %39, label %ERR_AFALG_error.exit.sink.split.i, label %ERR_AFALG_error.exit.i

40:                                               ; preds = %32
  %41 = load i32, ptr %20, align 8, !tbaa !31
  %42 = call i32 @accept(i32 noundef %41, ptr null, ptr noundef null) #13
  store i32 %42, ptr %19, align 4, !tbaa !27
  %43 = icmp slt i32 %42, 0
  br i1 %43, label %44, label %60

44:                                               ; preds = %40
  %45 = load ptr, ptr @stderr, align 8, !tbaa !16
  %46 = call i32 (ptr, ptr, ...) @fprintf(ptr noundef %45, ptr noundef nonnull @.str.25, ptr noundef nonnull @.str.1, i32 noundef 469) #15
  call void @perror(ptr noundef null) #16
  %47 = load i32, ptr @lib_code, align 4, !tbaa !12
  %48 = icmp eq i32 %47, 0
  br i1 %48, label %ERR_AFALG_error.exit.sink.split.i, label %ERR_AFALG_error.exit.i

ERR_AFALG_error.exit.sink.split.i:                ; preds = %44, %35, %27
  %.sink2.ph.i = phi i32 [ 109, %27 ], [ 103, %35 ], [ 110, %44 ]
  %.sink.ph.i = phi i32 [ 456, %27 ], [ 463, %35 ], [ 470, %44 ]
  %49 = call i32 @ERR_get_next_error_library() #13
  store i32 %49, ptr @lib_code, align 4, !tbaa !12
  br label %ERR_AFALG_error.exit.i

ERR_AFALG_error.exit.i:                           ; preds = %ERR_AFALG_error.exit.sink.split.i, %44, %35, %27
  %.sink2.i = phi i32 [ 109, %27 ], [ 103, %35 ], [ 110, %44 ], [ %.sink2.ph.i, %ERR_AFALG_error.exit.sink.split.i ]
  %.sink.i = phi i32 [ 456, %27 ], [ 463, %35 ], [ 470, %44 ], [ %.sink.ph.i, %ERR_AFALG_error.exit.sink.split.i ]
  call void @ERR_new() #13
  call void @ERR_set_debug(ptr noundef nonnull @.str.5, i32 noundef 70, ptr noundef nonnull @__func__.ERR_AFALG_error) #13
  %50 = load i32, ptr @lib_code, align 4, !tbaa !12
  call void (i32, i32, ptr, ...) @ERR_set_error(i32 noundef %50, i32 noundef %.sink2.i, ptr noundef null) #13
  call void @ERR_set_debug(ptr noundef nonnull @.str.1, i32 noundef %.sink.i, ptr noundef null) #13
  %51 = load i32, ptr %20, align 8, !tbaa !31
  %52 = icmp sgt i32 %51, -1
  br i1 %52, label %53, label %55

53:                                               ; preds = %ERR_AFALG_error.exit.i
  %54 = call i32 @close(i32 noundef %51) #13
  br label %55

55:                                               ; preds = %53, %ERR_AFALG_error.exit.i
  %56 = load i32, ptr %19, align 4, !tbaa !27
  %57 = icmp sgt i32 %56, -1
  br i1 %57, label %58, label %afalg_create_sk.exit.thread

58:                                               ; preds = %55
  %59 = call i32 @close(i32 noundef %56) #13
  br label %afalg_create_sk.exit.thread

afalg_create_sk.exit.thread:                      ; preds = %55, %58
  store i32 -1, ptr %19, align 4, !tbaa !27
  store i32 -1, ptr %20, align 8, !tbaa !31
  call void @llvm.lifetime.end.p0(i64 88, ptr nonnull %5) #13
  br label %83

60:                                               ; preds = %40
  call void @llvm.lifetime.end.p0(i64 88, ptr nonnull %5) #13
  %61 = call i32 @EVP_CIPHER_CTX_get_key_length(ptr noundef nonnull %0) #13
  %62 = icmp slt i32 %61, 1
  br i1 %62, label %78, label %63

63:                                               ; preds = %60
  %.val = load i32, ptr %20, align 8, !tbaa !31
  %64 = call i32 @setsockopt(i32 noundef %.val, i32 noundef 279, i32 noundef 1, ptr noundef nonnull %1, i32 noundef range(i32 1, -2147483648) %61) #13
  %65 = icmp slt i32 %64, 0
  br i1 %65, label %66, label %afalg_set_key.exit

66:                                               ; preds = %63
  %67 = load ptr, ptr @stderr, align 8, !tbaa !16
  %68 = call i32 (ptr, ptr, ...) @fprintf(ptr noundef %67, ptr noundef nonnull @.str.26, ptr noundef nonnull @.str.1, i32 noundef 433) #15
  call void @perror(ptr noundef null) #16
  %69 = load i32, ptr @lib_code, align 4, !tbaa !12
  %70 = icmp eq i32 %69, 0
  br i1 %70, label %71, label %afalg_set_key.exit.thread

71:                                               ; preds = %66
  %72 = call i32 @ERR_get_next_error_library() #13
  store i32 %72, ptr @lib_code, align 4, !tbaa !12
  br label %afalg_set_key.exit.thread

afalg_set_key.exit.thread:                        ; preds = %66, %71
  call void @ERR_new() #13
  call void @ERR_set_debug(ptr noundef nonnull @.str.5, i32 noundef 70, ptr noundef nonnull @__func__.ERR_AFALG_error) #13
  %73 = load i32, ptr @lib_code, align 4, !tbaa !12
  call void (i32, i32, ptr, ...) @ERR_set_error(i32 noundef %73, i32 noundef 106, ptr noundef null) #13
  call void @ERR_set_debug(ptr noundef nonnull @.str.1, i32 noundef 434, ptr noundef null) #13
  br label %78

afalg_set_key.exit:                               ; preds = %63
  %74 = getelementptr inbounds nuw i8, ptr %12, i64 16
  %75 = call fastcc i32 @afalg_init_aio(ptr noundef %74)
  %76 = icmp eq i32 %75, 0
  br i1 %76, label %78, label %77

77:                                               ; preds = %afalg_set_key.exit
  store i32 25757297, ptr %12, align 8, !tbaa !35
  br label %83

78:                                               ; preds = %afalg_set_key.exit.thread, %afalg_set_key.exit, %60
  %79 = load i32, ptr %19, align 4, !tbaa !27
  %80 = call i32 @close(i32 noundef %79) #13
  %81 = load i32, ptr %20, align 8, !tbaa !31
  %82 = call i32 @close(i32 noundef %81) #13
  br label %83

83:                                               ; preds = %afalg_create_sk.exit.thread, %16, %14, %11, %8, %4, %78, %77
  %.0 = phi i32 [ 0, %78 ], [ 1, %77 ], [ 0, %4 ], [ 0, %8 ], [ 0, %11 ], [ 0, %14 ], [ 0, %16 ], [ 0, %afalg_create_sk.exit.thread ]
  ret i32 %.0
}